; Function Attrs: nounwind uwtable
define zeroext range(i8 0, 2) i8 @Java_sun_awt_UNIXToolkit_gtkCheckVersionImpl(ptr nocapture noundef readnone %0, ptr nocapture noundef readnone %1, i32 noundef %2, i32 noundef %3, i32 noundef %4) local_unnamed_addr #0 {
  %6 = load ptr, ptr @gtk, align 8
  %7 = getelementptr inbounds i8, ptr %6, i64 32
  %8 = load ptr, ptr %7, align 8
  %9 = tail call ptr %8(i32 noundef %2, i32 noundef %3, i32 noundef %4) #6
  %10 = icmp eq ptr %9, null
  %. = zext i1 %10 to i8
  ret i8 %.
}